; Function Attrs: mustprogress nofree norecurse nosync nounwind willreturn memory(argmem: read) uwtable
define i48 @_ZNK4LIEF5MachO12DylibCommand15current_versionEv(ptr nocapture noundef nonnull readonly align 8 dereferenceable(100) %0) local_unnamed_addr #8 align 2 {
  %2 = getelementptr inbounds i8, ptr %0, i64 92
  %3 = load i32, ptr %2, align 4
  %4 = lshr i32 %3, 16
  %5 = trunc i32 %3 to i16
  %6 = lshr i16 %5, 8
  %7 = and i16 %5, 255
  %.sroa.3.0.insert.ext.i = zext nneg i16 %7 to i48
  %.sroa.3.0.insert.shift.i = shl nuw nsw i48 %.sroa.3.0.insert.ext.i, 32
  %.sroa.2.0.insert.ext.i = zext nneg i16 %6 to i48
  %.sroa.2.0.insert.shift.i = shl nuw nsw i48 %.sroa.2.0.insert.ext.i, 16
  %.sroa.2.0.insert.insert.i = or disjoint i48 %.sroa.3.0.insert.shift.i, %.sroa.2.0.insert.shift.i
  %.sroa.0.0.insert.ext.i = zext nneg i32 %4 to i48
  %.sroa.0.0.insert.insert.i = or disjoint i48 %.sroa.2.0.insert.insert.i, %.sroa.0.0.insert.ext.i
  ret i48 %.sroa.0.0.insert.insert.i
}